; Function Attrs: mustprogress uwtable
define dso_local noundef zeroext i1 @_ZN4Json23BuiltStyledStreamWriter16isMultilineArrayERKNS_5ValueE(ptr noundef nonnull align 8 dereferenceable(228) %0, ptr noundef nonnull align 8 dereferenceable(40) %1) local_unnamed_addr #0 align 2 personality ptr @__gxx_personality_v0 {
  %3 = tail call noundef i32 @_ZNK4Json5Value4sizeEv(ptr noundef nonnull align 8 dereferenceable(40) %1)
  %4 = mul i32 %3, 3
  %5 = getelementptr inbounds i8, ptr %0, i64 72
  %6 = load i32, ptr %5, align 8
  %7 = icmp uge i32 %4, %6
  %8 = getelementptr inbounds i8, ptr %0, i64 16
  %9 = load ptr, ptr %8, align 8
  %10 = getelementptr inbounds i8, ptr %0, i64 24
  %11 = load ptr, ptr %10, align 8
  %.not.i.i = icmp eq ptr %11, %9
  br i1 %.not.i.i, label %_ZNSt6vectorINSt7__cxx1112basic_stringIcSt11char_traitsIcESaIcEEESaIS5_EE5clearEv.exit, label %.lr.ph.i.i.i.i.i

.lr.ph.i.i.i.i.i:                                 ; preds = %2, %.lr.ph.i.i.i.i.i
  %.05.i.i.i.i.i = phi ptr [ %12, %.lr.ph.i.i.i.i.i ], [ %9, %2 ]
  tail call void @_ZNSt7__cxx1112basic_stringIcSt11char_traitsIcESaIcEED1Ev(ptr noundef nonnull align 8 dereferenceable(32) %.05.i.i.i.i.i) #19
  %12 = getelementptr inbounds i8, ptr %.05.i.i.i.i.i, i64 32
  %.not.i.i.i.i.i = icmp eq ptr %12, %11
  br i1 %.not.i.i.i.i.i, label %_ZSt8_DestroyIPNSt7__cxx1112basic_stringIcSt11char_traitsIcESaIcEEES5_EvT_S7_RSaIT0_E.exit.i.i, label %.lr.ph.i.i.i.i.i, !llvm.loop !13

_ZSt8_DestroyIPNSt7__cxx1112basic_stringIcSt11char_traitsIcESaIcEEES5_EvT_S7_RSaIT0_E.exit.i.i: ; preds = %.lr.ph.i.i.i.i.i
  store ptr %9, ptr %10, align 8
  br label %_ZNSt6vectorINSt7__cxx1112basic_stringIcSt11char_traitsIcESaIcEEESaIS5_EE5clearEv.exit

_ZNSt6vectorINSt7__cxx1112basic_stringIcSt11char_traitsIcESaIcEEESaIS5_EE5clearEv.exit: ; preds = %2, %_ZSt8_DestroyIPNSt7__cxx1112basic_stringIcSt11char_traitsIcESaIcEEES5_EvT_S7_RSaIT0_E.exit.i.i
  %13 = icmp eq i32 %3, 0
  %.not2930 = select i1 %13, i1 true, i1 %7
  br i1 %.not2930, label %._crit_edge, label %.lr.ph

.lr.ph:                                           ; preds = %_ZNSt6vectorINSt7__cxx1112basic_stringIcSt11char_traitsIcESaIcEEESaIS5_EE5clearEv.exit, %21
  %.02831 = phi i32 [ %23, %21 ], [ 0, %_ZNSt6vectorINSt7__cxx1112basic_stringIcSt11char_traitsIcESaIcEEESaIS5_EE5clearEv.exit ]
  %14 = tail call noundef nonnull align 8 dereferenceable(40) ptr @_ZNK4Json5ValueixEj(ptr noundef nonnull align 8 dereferenceable(40) %1, i32 noundef %.02831)
  %15 = tail call noundef zeroext i1 @_ZNK4Json5Value7isArrayEv(ptr noundef nonnull align 8 dereferenceable(40) %14)
  br i1 %15, label %18, label %16

16:                                               ; preds = %.lr.ph
  %17 = tail call noundef zeroext i1 @_ZNK4Json5Value8isObjectEv(ptr noundef nonnull align 8 dereferenceable(40) %14)
  br i1 %17, label %18, label %21

18:                                               ; preds = %16, %.lr.ph
  %19 = tail call noundef zeroext i1 @_ZNK4Json5Value5emptyEv(ptr noundef nonnull align 8 dereferenceable(40) %14)
  %20 = xor i1 %19, true
  br label %21

21:                                               ; preds = %18, %16
  %22 = phi i1 [ false, %16 ], [ %20, %18 ]
  %23 = add nuw i32 %.02831, 1
  %24 = icmp uge i32 %23, %3
  %.not29 = or i1 %24, %22
  br i1 %.not29, label %._crit_edge, label %.lr.ph, !llvm.loop !37

._crit_edge:                                      ; preds = %21, %_ZNSt6vectorINSt7__cxx1112basic_stringIcSt11char_traitsIcESaIcEEESaIS5_EE5clearEv.exit
  %.027.in.lcssa = phi i1 [ %7, %_ZNSt6vectorINSt7__cxx1112basic_stringIcSt11char_traitsIcESaIcEEESaIS5_EE5clearEv.exit ], [ %22, %21 ]
  br i1 %.027.in.lcssa, label %53, label %25

25:                                               ; preds = %._crit_edge
  %26 = zext i32 %3 to i64
  tail call void @_ZNSt6vectorINSt7__cxx1112basic_stringIcSt11char_traitsIcESaIcEEESaIS5_EE7reserveEm(ptr noundef nonnull align 8 dereferenceable(24) %8, i64 noundef %26)
  %27 = getelementptr inbounds i8, ptr %0, i64 216
  %28 = load i8, ptr %27, align 8
  %29 = or i8 %28, 1
  store i8 %29, ptr %27, align 8
  %30 = shl i32 %3, 1
  %31 = add i32 %30, 2
  br i1 %13, label %._crit_edge37, label %.lr.ph36

.lr.ph36:                                         ; preds = %25, %38
  %indvars.iv = phi i64 [ %indvars.iv.next, %38 ], [ 0, %25 ]
  %.02633 = phi i32 [ %45, %38 ], [ %31, %25 ]
  %.132 = phi i8 [ %39, %38 ], [ 0, %25 ]
  %32 = trunc i64 %indvars.iv to i32
  %33 = tail call noundef nonnull align 8 dereferenceable(40) ptr @_ZNK4Json5ValueixEj(ptr noundef nonnull align 8 dereferenceable(40) %1, i32 noundef %32)
  %34 = tail call noundef zeroext i1 @_ZNK4Json5Value10hasCommentENS_16CommentPlacementE(ptr noundef nonnull align 8 dereferenceable(40) %33, i32 noundef 0)
  br i1 %34, label %_ZN4Json23BuiltStyledStreamWriter18hasCommentForValueERKNS_5ValueE.exit.thread, label %35

35:                                               ; preds = %.lr.ph36
  %36 = tail call noundef zeroext i1 @_ZNK4Json5Value10hasCommentENS_16CommentPlacementE(ptr noundef nonnull align 8 dereferenceable(40) %33, i32 noundef 1)
  br i1 %36, label %_ZN4Json23BuiltStyledStreamWriter18hasCommentForValueERKNS_5ValueE.exit.thread, label %_ZN4Json23BuiltStyledStreamWriter18hasCommentForValueERKNS_5ValueE.exit

_ZN4Json23BuiltStyledStreamWriter18hasCommentForValueERKNS_5ValueE.exit: ; preds = %35
  %37 = tail call noundef zeroext i1 @_ZNK4Json5Value10hasCommentENS_16CommentPlacementE(ptr noundef nonnull align 8 dereferenceable(40) %33, i32 noundef 2)
  br i1 %37, label %_ZN4Json23BuiltStyledStreamWriter18hasCommentForValueERKNS_5ValueE.exit.thread, label %38

_ZN4Json23BuiltStyledStreamWriter18hasCommentForValueERKNS_5ValueE.exit.thread: ; preds = %.lr.ph36, %35, %_ZN4Json23BuiltStyledStreamWriter18hasCommentForValueERKNS_5ValueE.exit
  br label %38

38:                                               ; preds = %_ZN4Json23BuiltStyledStreamWriter18hasCommentForValueERKNS_5ValueE.exit, %_ZN4Json23BuiltStyledStreamWriter18hasCommentForValueERKNS_5ValueE.exit.thread
  %39 = phi i8 [ 1, %_ZN4Json23BuiltStyledStreamWriter18hasCommentForValueERKNS_5ValueE.exit.thread ], [ %.132, %_ZN4Json23BuiltStyledStreamWriter18hasCommentForValueERKNS_5ValueE.exit ]
  %40 = tail call noundef nonnull align 8 dereferenceable(40) ptr @_ZNK4Json5ValueixEj(ptr noundef nonnull align 8 dereferenceable(40) %1, i32 noundef %32)
  tail call void @_ZN4Json23BuiltStyledStreamWriter10writeValueERKNS_5ValueE(ptr noundef nonnull align 8 dereferenceable(228) %0, ptr noundef nonnull align 8 dereferenceable(40) %40)
  %41 = load ptr, ptr %8, align 8
  %42 = getelementptr inbounds %"class.std::__cxx11::basic_string", ptr %41, i64 %indvars.iv
  %43 = tail call noundef i64 @_ZNKSt7__cxx1112basic_stringIcSt11char_traitsIcESaIcEE6lengthEv(ptr noundef nonnull align 8 dereferenceable(32) %42) #19
  %44 = trunc i64 %43 to i32
  %45 = add i32 %.02633, %44
  %indvars.iv.next = add nuw nsw i64 %indvars.iv, 1
  %exitcond.not = icmp eq i64 %indvars.iv.next, %26
  br i1 %exitcond.not, label %._crit_edge37.loopexit, label %.lr.ph36, !llvm.loop !38

._crit_edge37.loopexit:                           ; preds = %38
  %.pre = load i8, ptr %27, align 8
  %46 = and i8 %39, 1
  %47 = icmp ne i8 %46, 0
  br label %._crit_edge37

._crit_edge37:                                    ; preds = %._crit_edge37.loopexit, %25
  %48 = phi i8 [ %29, %25 ], [ %.pre, %._crit_edge37.loopexit ]
  %.1.lcssa = phi i1 [ false, %25 ], [ %47, %._crit_edge37.loopexit ]
  %.026.lcssa = phi i32 [ %31, %25 ], [ %45, %._crit_edge37.loopexit ]
  %49 = and i8 %48, -2
  store i8 %49, ptr %27, align 8
  %50 = load i32, ptr %5, align 8
  %51 = icmp uge i32 %.026.lcssa, %50
  %52 = select i1 %.1.lcssa, i1 true, i1 %51
  br label %53

53:                                               ; preds = %._crit_edge37, %._crit_edge
  %.3 = phi i1 [ true, %._crit_edge ], [ %52, %._crit_edge37 ]
  ret i1 %.3
}